target datalayout = "e-m:e-p270:32:32-p271:32:32-p272:64:64-i64:64-i128:128-f80:128-n8:16:32:64-S128"
target triple = "x86_64-pc-linux-gnu"

%"class.pxrInternal_v0_24__pxrReserved__::CameraUtilFraming" = type { %"class.pxrInternal_v0_24__pxrReserved__::GfRange2f", %"class.pxrInternal_v0_24__pxrReserved__::GfRect2i", float }
%"class.pxrInternal_v0_24__pxrReserved__::GfRange2f" = type { %"class.pxrInternal_v0_24__pxrReserved__::GfVec2f", %"class.pxrInternal_v0_24__pxrReserved__::GfVec2f" }
%"class.pxrInternal_v0_24__pxrReserved__::GfVec2f" = type { [2 x float] }
%"class.pxrInternal_v0_24__pxrReserved__::GfRect2i" = type { %"class.pxrInternal_v0_24__pxrReserved__::GfVec2i", %"class.pxrInternal_v0_24__pxrReserved__::GfVec2i" }
%"class.pxrInternal_v0_24__pxrReserved__::GfVec2i" = type { [2 x i32] }
%"class.pxrInternal_v0_24__pxrReserved__::GfRange2d" = type { %"class.pxrInternal_v0_24__pxrReserved__::GfVec2d", %"class.pxrInternal_v0_24__pxrReserved__::GfVec2d" }
%"class.pxrInternal_v0_24__pxrReserved__::GfVec2d" = type { [2 x double] }

; Function Attrs: mustprogress nounwind uwtable
define internal noundef double @_ZN32pxrInternal_v0_24__pxrReserved__L8_SafeDivEdd(double noundef %0, double noundef %1) #1 {
  %3 = alloca double, align 8
  %4 = alloca double, align 8
  %5 = alloca double, align 8
  store double %0, ptr %4, align 8
  store double %1, ptr %5, align 8
  %6 = load double, ptr %5, align 8
  %7 = fcmp oeq double %6, 0.000000e+00
  br i1 %7, label %8, label %9

8:                                                ; preds = %2
  store double 1.000000e+00, ptr %3, align 8
  br label %13

9:                                                ; preds = %2
  %10 = load double, ptr %4, align 8
  %11 = load double, ptr %5, align 8
  %12 = fdiv double %10, %11
  store double %12, ptr %3, align 8
  br label %13

13:                                               ; preds = %9, %8
  %14 = load double, ptr %3, align 8
  ret double %14
}

; Function Attrs: mustprogress nounwind uwtable
define internal noundef i32 @_ZN32pxrInternal_v0_24__pxrReserved__L13_InvertPolicyENS_29CameraUtilConformWindowPolicyE(i32 noundef %0) #1 {
  %2 = alloca i32, align 4
  %3 = alloca i32, align 4
  store i32 %0, ptr %3, align 4
  %4 = load i32, ptr %3, align 4
  switch i32 %4, label %7 [
    i32 2, label %5
    i32 3, label %6
  ]

5:                                                ; preds = %1
  store i32 3, ptr %2, align 4
  br label %9

6:                                                ; preds = %1
  store i32 2, ptr %2, align 4
  br label %9

7:                                                ; preds = %1
  %8 = load i32, ptr %3, align 4
  store i32 %8, ptr %2, align 4
  br label %9

9:                                                ; preds = %7, %6, %5
  %10 = load i32, ptr %2, align 4
  ret i32 %10
}

; Function Attrs: mustprogress uwtable
define { <2 x float>, <2 x float> } @_ZNK32pxrInternal_v0_24__pxrReserved__17CameraUtilFraming21ComputeFilmbackWindowEfNS_29CameraUtilConformWindowPolicyE(ptr noundef nonnull align 4 dereferenceable(36) %0, float noundef %1, i32 noundef %2) #0 align 2 {
  %4 = alloca %"class.pxrInternal_v0_24__pxrReserved__::GfRange2f", align 4
  %5 = alloca ptr, align 8
  %6 = alloca float, align 4
  %7 = alloca i32, align 4
  %8 = alloca %"class.pxrInternal_v0_24__pxrReserved__::GfRange2d", align 8
  %9 = alloca %"class.pxrInternal_v0_24__pxrReserved__::GfRange2d", align 8
  store ptr %0, ptr %5, align 8
  store float %1, ptr %6, align 4
  store i32 %2, ptr %7, align 4
  %10 = load ptr, ptr %5, align 8
  %11 = getelementptr inbounds nuw %"class.pxrInternal_v0_24__pxrReserved__::CameraUtilFraming", ptr %10, i32 0, i32 0
  call void @_ZN32pxrInternal_v0_24__pxrReserved__9GfRange2dC1ERKNS_9GfRange2fE(ptr noundef nonnull align 8 dereferenceable(32) %9, ptr noundef nonnull align 4 dereferenceable(16) %11)
  %12 = load i32, ptr %7, align 4
  %13 = call noundef i32 @_ZN32pxrInternal_v0_24__pxrReserved__L13_InvertPolicyENS_29CameraUtilConformWindowPolicyE(i32 noundef %12)
  %14 = load float, ptr %6, align 4
  %15 = fpext float %14 to double
  %16 = getelementptr inbounds nuw %"class.pxrInternal_v0_24__pxrReserved__::CameraUtilFraming", ptr %10, i32 0, i32 2
  %17 = load float, ptr %16, align 4
  %18 = fpext float %17 to double
  %19 = call noundef double @_ZN32pxrInternal_v0_24__pxrReserved__L8_SafeDivEdd(double noundef %15, double noundef %18)
  call void @_ZN32pxrInternal_v0_24__pxrReserved__25CameraUtilConformedWindowERKNS_9GfRange2dENS_29CameraUtilConformWindowPolicyEd(ptr dead_on_unwind writable sret(%"class.pxrInternal_v0_24__pxrReserved__::GfRange2d") align 8 %8, ptr noundef nonnull align 8 dereferenceable(32) %9, i32 noundef %13, double noundef %19)
  call void @_ZN32pxrInternal_v0_24__pxrReserved__9GfRange2fC1ERKNS_9GfRange2dE(ptr noundef nonnull align 4 dereferenceable(16) %4, ptr noundef nonnull align 8 dereferenceable(32) %8)
  %20 = load { <2 x float>, <2 x float> }, ptr %4, align 4
  ret { <2 x float>, <2 x float> } %20
}