; Function Attrs: mustprogress uwtable
define { <2 x float>, <2 x float> } @_ZNK32pxrInternal_v0_24__pxrReserved__17CameraUtilFraming21ComputeFilmbackWindowEfNS_29CameraUtilConformWindowPolicyE(ptr noundef nonnull align 4 dereferenceable(36) %0, float noundef %1, i32 noundef %2) local_unnamed_addr #7 align 2 {
  %4 = alloca %"class.pxrInternal_v0_24__pxrReserved__::GfRange2f", align 8
  %5 = alloca %"class.pxrInternal_v0_24__pxrReserved__::GfRange2d", align 8
  %6 = alloca %"class.pxrInternal_v0_24__pxrReserved__::GfRange2d", align 8
  call void @_ZN32pxrInternal_v0_24__pxrReserved__9GfRange2dC1ERKNS_9GfRange2fE(ptr noundef nonnull align 8 dereferenceable(32) %6, ptr noundef nonnull align 4 dereferenceable(16) %0)
  switch i32 %2, label %8 [
    i32 2, label %_ZN32pxrInternal_v0_24__pxrReserved__L13_InvertPolicyENS_29CameraUtilConformWindowPolicyE.exit
    i32 3, label %7
  ]

7:                                                ; preds = %3
  br label %_ZN32pxrInternal_v0_24__pxrReserved__L13_InvertPolicyENS_29CameraUtilConformWindowPolicyE.exit

8:                                                ; preds = %3
  br label %_ZN32pxrInternal_v0_24__pxrReserved__L13_InvertPolicyENS_29CameraUtilConformWindowPolicyE.exit

_ZN32pxrInternal_v0_24__pxrReserved__L13_InvertPolicyENS_29CameraUtilConformWindowPolicyE.exit: ; preds = %3, %7, %8
  %.0.i = phi i32 [ %2, %8 ], [ 2, %7 ], [ 3, %3 ]
  %9 = fpext float %1 to double
  %10 = getelementptr inbounds nuw i8, ptr %0, i64 32
  %11 = load float, ptr %10, align 4
  %12 = fpext float %11 to double
  %13 = fcmp oeq float %11, 0.000000e+00
  %14 = fdiv double %9, %12
  %.0.i2 = select i1 %13, double 1.000000e+00, double %14
  call void @_ZN32pxrInternal_v0_24__pxrReserved__25CameraUtilConformedWindowERKNS_9GfRange2dENS_29CameraUtilConformWindowPolicyEd(ptr dead_on_unwind nonnull writable sret(%"class.pxrInternal_v0_24__pxrReserved__::GfRange2d") align 8 %5, ptr noundef nonnull align 8 dereferenceable(32) %6, i32 noundef %.0.i, double noundef %.0.i2)
  call void @_ZN32pxrInternal_v0_24__pxrReserved__9GfRange2fC1ERKNS_9GfRange2dE(ptr noundef nonnull align 4 dereferenceable(16) %4, ptr noundef nonnull align 8 dereferenceable(32) %5)
  %.fca.0.load = load <2 x float>, ptr %4, align 8
  %.fca.0.insert = insertvalue { <2 x float>, <2 x float> } poison, <2 x float> %.fca.0.load, 0
  %.fca.1.gep = getelementptr inbounds i8, ptr %4, i64 8
  %.fca.1.load = load <2 x float>, ptr %.fca.1.gep, align 8
  %.fca.1.insert = insertvalue { <2 x float>, <2 x float> } %.fca.0.insert, <2 x float> %.fca.1.load, 1
  ret { <2 x float>, <2 x float> } %.fca.1.insert
}